target datalayout = "e-m:e-p270:32:32-p271:32:32-p272:64:64-i64:64-i128:128-f80:128-n8:16:32:64-S128"
target triple = "x86_64-pc-linux-gnu"

%"class.google::protobuf::io::CodedInputStream" = type { ptr, ptr, ptr, i32, i32, i32, i8, i8, i32, i32, i32, i32, i32, ptr, ptr }

; Function Attrs: inlinehint mustprogress nounwind uwtable
define linkonce_odr hidden void @_ZN6google8protobuf2io16CodedInputStream7AdvanceEi(ptr noundef nonnull align 8 dereferenceable(80) %0, i32 noundef %1) #5 comdat align 2 {
  %3 = alloca ptr, align 8
  %4 = alloca i32, align 4
  store ptr %0, ptr %3, align 8, !tbaa !3
  store i32 %1, ptr %4, align 4, !tbaa !8
  %5 = load ptr, ptr %3, align 8
  %6 = load i32, ptr %4, align 4, !tbaa !8
  %7 = getelementptr inbounds nuw %"class.google::protobuf::io::CodedInputStream", ptr %5, i32 0, i32 0
  %8 = load ptr, ptr %7, align 8, !tbaa !12
  %9 = sext i32 %6 to i64
  %10 = getelementptr inbounds i8, ptr %8, i64 %9
  store ptr %10, ptr %7, align 8, !tbaa !12
  ret void
}

; Function Attrs: inlinehint mustprogress uwtable
define linkonce_odr hidden noundef zeroext i1 @_ZN6google8protobuf2io16CodedInputStream12ReadVarint32EPj(ptr noundef nonnull align 8 dereferenceable(80) %0, ptr noundef %1) #7 comdat align 2 {
  %3 = alloca i1, align 1
  %4 = alloca ptr, align 8
  %5 = alloca ptr, align 8
  %6 = alloca i32, align 4
  %7 = alloca i32, align 4
  %8 = alloca i64, align 8
  store ptr %0, ptr %4, align 8, !tbaa !3
  store ptr %1, ptr %5, align 8, !tbaa !28
  %9 = load ptr, ptr %4, align 8
  call void @llvm.lifetime.start.p0(i64 4, ptr %6) #3
  store i32 0, ptr %6, align 4, !tbaa !8
  %10 = getelementptr inbounds nuw %"class.google::protobuf::io::CodedInputStream", ptr %9, i32 0, i32 0
  %11 = load ptr, ptr %10, align 8, !tbaa !12
  %12 = getelementptr inbounds nuw %"class.google::protobuf::io::CodedInputStream", ptr %9, i32 0, i32 1
  %13 = load ptr, ptr %12, align 8, !tbaa !19
  %14 = icmp ult ptr %11, %13
  %15 = zext i1 %14 to i64
  %16 = call i64 @llvm.expect.i64(i64 %15, i64 1)
  %17 = icmp ne i64 %16, 0
  br i1 %17, label %18, label %29

18:                                               ; preds = %2
  %19 = getelementptr inbounds nuw %"class.google::protobuf::io::CodedInputStream", ptr %9, i32 0, i32 0
  %20 = load ptr, ptr %19, align 8, !tbaa !12
  %21 = load i8, ptr %20, align 1, !tbaa !20
  %22 = zext i8 %21 to i32
  store i32 %22, ptr %6, align 4, !tbaa !8
  %23 = load i32, ptr %6, align 4, !tbaa !8
  %24 = icmp ult i32 %23, 128
  br i1 %24, label %25, label %28

25:                                               ; preds = %18
  %26 = load i32, ptr %6, align 4, !tbaa !8
  %27 = load ptr, ptr %5, align 8, !tbaa !28
  store i32 %26, ptr %27, align 4, !tbaa !8
  call void @_ZN6google8protobuf2io16CodedInputStream7AdvanceEi(ptr noundef nonnull align 8 dereferenceable(80) %9, i32 noundef 1)
  store i1 true, ptr %3, align 1
  store i32 1, ptr %7, align 4
  br label %37

28:                                               ; preds = %18
  br label %29

29:                                               ; preds = %28, %2
  call void @llvm.lifetime.start.p0(i64 8, ptr %8) #3
  %30 = load i32, ptr %6, align 4, !tbaa !8
  %31 = call noundef i64 @_ZN6google8protobuf2io16CodedInputStream20ReadVarint32FallbackEj(ptr noundef nonnull align 8 dereferenceable(80) %9, i32 noundef %30)
  store i64 %31, ptr %8, align 8, !tbaa !21
  %32 = load i64, ptr %8, align 8, !tbaa !21
  %33 = trunc i64 %32 to i32
  %34 = load ptr, ptr %5, align 8, !tbaa !28
  store i32 %33, ptr %34, align 4, !tbaa !8
  %35 = load i64, ptr %8, align 8, !tbaa !21
  %36 = icmp sge i64 %35, 0
  store i1 %36, ptr %3, align 1
  store i32 1, ptr %7, align 4
  call void @llvm.lifetime.end.p0(i64 8, ptr %8) #3
  br label %37

37:                                               ; preds = %29, %25
  call void @llvm.lifetime.end.p0(i64 4, ptr %6) #3
  %38 = load i1, ptr %3, align 1
  ret i1 %38
}

; Function Attrs: alwaysinline mustprogress uwtable
define internal noundef zeroext i1 @_ZN6google8protobuf8internalL17ReadBytesToStringEPNS0_2io16CodedInputStreamEPNSt7__cxx1112basic_stringIcSt11char_traitsIcESaIcEEE(ptr noundef %0, ptr noundef %1) #9 {
  %3 = alloca ptr, align 8
  %4 = alloca ptr, align 8
  %5 = alloca i32, align 4
  store ptr %0, ptr %3, align 8, !tbaa !3
  store ptr %1, ptr %4, align 8, !tbaa !43
  call void @llvm.lifetime.start.p0(i64 4, ptr %5) #3
  %6 = load ptr, ptr %3, align 8, !tbaa !3
  %7 = call noundef zeroext i1 @_ZN6google8protobuf2io16CodedInputStream12ReadVarint32EPj(ptr noundef nonnull align 8 dereferenceable(80) %6, ptr noundef %5)
  br i1 %7, label %8, label %13

8:                                                ; preds = %2
  %9 = load ptr, ptr %3, align 8, !tbaa !3
  %10 = load ptr, ptr %4, align 8, !tbaa !43
  %11 = load i32, ptr %5, align 4, !tbaa !8
  %12 = call noundef zeroext i1 @_ZN6google8protobuf2io16CodedInputStream10ReadStringEPNSt7__cxx1112basic_stringIcSt11char_traitsIcESaIcEEEi(ptr noundef nonnull align 8 dereferenceable(80) %9, ptr noundef %10, i32 noundef %11)
  br label %13

13:                                               ; preds = %8, %2
  %14 = phi i1 [ false, %2 ], [ %12, %8 ]
  call void @llvm.lifetime.end.p0(i64 4, ptr %5) #3
  ret i1 %14
}

; Function Attrs: mustprogress uwtable
define hidden noundef zeroext i1 @_ZN6google8protobuf8internal14WireFormatLite9ReadBytesEPNS0_2io16CodedInputStreamEPNSt7__cxx1112basic_stringIcSt11char_traitsIcESaIcEEE(ptr noundef %0, ptr noundef %1) #4 align 2 {
  %3 = alloca ptr, align 8
  %4 = alloca ptr, align 8
  store ptr %0, ptr %3, align 8, !tbaa !3
  store ptr %1, ptr %4, align 8, !tbaa !43
  %5 = load ptr, ptr %3, align 8, !tbaa !3
  %6 = load ptr, ptr %4, align 8, !tbaa !43
  %7 = call noundef zeroext i1 @_ZN6google8protobuf8internalL17ReadBytesToStringEPNS0_2io16CodedInputStreamEPNSt7__cxx1112basic_stringIcSt11char_traitsIcESaIcEEE(ptr noundef %5, ptr noundef %6)
  ret i1 %7
}