; Function Attrs: mustprogress uwtable
define hidden noundef zeroext i1 @_ZN6google8protobuf8internal14WireFormatLite9ReadBytesEPNS0_2io16CodedInputStreamEPNSt7__cxx1112basic_stringIcSt11char_traitsIcESaIcEEE(ptr noundef %0, ptr noundef %1) local_unnamed_addr #3 align 2 {
  %3 = load ptr, ptr %0, align 8, !tbaa !3
  %4 = getelementptr inbounds nuw i8, ptr %0, i64 8
  %5 = load ptr, ptr %4, align 8, !tbaa !14
  %6 = icmp ult ptr %3, %5
  br i1 %6, label %7, label %_ZN6google8protobuf2io16CodedInputStream12ReadVarint32EPj.exit, !prof !15

7:                                                ; preds = %2
  %8 = load i8, ptr %3, align 1, !tbaa !16
  %9 = zext i8 %8 to i32
  %10 = icmp sgt i8 %8, -1
  br i1 %10, label %_ZN6google8protobuf2io16CodedInputStream12ReadVarint32EPj.exit.thread, label %_ZN6google8protobuf2io16CodedInputStream12ReadVarint32EPj.exit

_ZN6google8protobuf2io16CodedInputStream12ReadVarint32EPj.exit.thread: ; preds = %7
  %11 = getelementptr inbounds nuw i8, ptr %3, i64 1
  store ptr %11, ptr %0, align 8, !tbaa !3
  br label %15

_ZN6google8protobuf2io16CodedInputStream12ReadVarint32EPj.exit: ; preds = %2, %7
  %.08.i = phi i32 [ %9, %7 ], [ 0, %2 ]
  %12 = tail call noundef i64 @_ZN6google8protobuf2io16CodedInputStream20ReadVarint32FallbackEj(ptr noundef nonnull align 8 dereferenceable(80) %0, i32 noundef %.08.i)
  %13 = trunc i64 %12 to i32
  %14 = icmp sgt i64 %12, -1
  br i1 %14, label %15, label %_ZN6google8protobuf8internalL17ReadBytesToStringEPNS0_2io16CodedInputStreamEPNSt7__cxx1112basic_stringIcSt11char_traitsIcESaIcEEE.exit

15:                                               ; preds = %_ZN6google8protobuf2io16CodedInputStream12ReadVarint32EPj.exit.thread, %_ZN6google8protobuf2io16CodedInputStream12ReadVarint32EPj.exit
  %.04 = phi i32 [ %9, %_ZN6google8protobuf2io16CodedInputStream12ReadVarint32EPj.exit.thread ], [ %13, %_ZN6google8protobuf2io16CodedInputStream12ReadVarint32EPj.exit ]
  %16 = tail call noundef zeroext i1 @_ZN6google8protobuf2io16CodedInputStream10ReadStringEPNSt7__cxx1112basic_stringIcSt11char_traitsIcESaIcEEEi(ptr noundef nonnull align 8 dereferenceable(80) %0, ptr noundef %1, i32 noundef %.04)
  br label %_ZN6google8protobuf8internalL17ReadBytesToStringEPNS0_2io16CodedInputStreamEPNSt7__cxx1112basic_stringIcSt11char_traitsIcESaIcEEE.exit

_ZN6google8protobuf8internalL17ReadBytesToStringEPNS0_2io16CodedInputStreamEPNSt7__cxx1112basic_stringIcSt11char_traitsIcESaIcEEE.exit: ; preds = %_ZN6google8protobuf2io16CodedInputStream12ReadVarint32EPj.exit, %15
  %17 = phi i1 [ false, %_ZN6google8protobuf2io16CodedInputStream12ReadVarint32EPj.exit ], [ %16, %15 ]
  ret i1 %17
}